target datalayout = "e-m:e-p270:32:32-p271:32:32-p272:64:64-i64:64-i128:128-f80:128-n8:16:32:64-S128"
target triple = "x86_64-pc-linux-gnu"

%struct.timespec = type { i64, i64 }
%union.sem_t = type { i64, [24 x i8] }

@GC_print_stats = internal global i32 0, align 4
@GC_on_abort = global ptr @GC_default_on_abort, align 8
@GC_gc_no = global i64 0, align 8
@GC_current_warn_proc = internal global ptr @GC_default_warn_proc, align 8
@.str.119 = private unnamed_addr constant [16 x i8] c"sem_wait failed\00", align 1
@GC_suspend_ack_sem = internal global %union.sem_t zeroinitializer, align 8
@.str.296 = private unnamed_addr constant [46 x i8] c"Signals delivery fails constantly at GC #%lu\0A\00", align 1
@.str.297 = private unnamed_addr constant [34 x i8] c"Signals delivery fails constantly\00", align 1
@.str.298 = private unnamed_addr constant [44 x i8] c"Resent %d signals after timeout, retry: %d\0A\00", align 1
@.str.299 = private unnamed_addr constant [66 x i8] c"GC Warning: Lost some threads while stopping or starting world?!\0A\00", align 1

; Function Attrs: nounwind uwtable
define internal void @GC_usleep(i32 noundef %0) #0 {
  %2 = alloca i32, align 4
  store i32 %0, ptr %2, align 4
  %3 = load i32, ptr %2, align 4
  %4 = call i32 @usleep(i32 noundef %3)
  ret void
}

; Function Attrs: nounwind uwtable
define internal void @suspend_restart_barrier(i32 noundef %0) #0 {
  %2 = alloca i32, align 4
  %3 = alloca i32, align 4
  store i32 %0, ptr %2, align 4
  store i32 0, ptr %3, align 4
  br label %4

4:                                                ; preds = %20, %1
  %5 = load i32, ptr %3, align 4
  %6 = load i32, ptr %2, align 4
  %7 = icmp slt i32 %5, %6
  br i1 %7, label %8, label %23

8:                                                ; preds = %4
  br label %9

9:                                                ; preds = %18, %8
  %10 = call i32 @sem_wait(ptr noundef @GC_suspend_ack_sem)
  %11 = icmp ne i32 0, %10
  br i1 %11, label %12, label %19

12:                                               ; preds = %9
  %13 = call ptr @__errno_location() #23
  %14 = load i32, ptr %13, align 4
  %15 = icmp ne i32 %14, 4
  br i1 %15, label %16, label %18

16:                                               ; preds = %12
  %17 = load ptr, ptr @GC_on_abort, align 8
  call void %17(ptr noundef @.str.119)
  call void @abort() #20
  unreachable

18:                                               ; preds = %12
  br label %9, !llvm.loop !101

19:                                               ; preds = %9
  br label %20

20:                                               ; preds = %19
  %21 = load i32, ptr %3, align 4
  %22 = add nsw i32 %21, 1
  store i32 %22, ptr %3, align 4
  br label %4, !llvm.loop !102

23:                                               ; preds = %4
  ret void
}

; Function Attrs: nounwind uwtable
define internal i32 @resend_lost_signals(i32 noundef %0, ptr noundef %1) #0 {
  %3 = alloca i32, align 4
  %4 = alloca ptr, align 8
  %5 = alloca i64, align 8
  %6 = alloca i32, align 4
  %7 = alloca i32, align 4
  %8 = alloca i32, align 4
  %9 = alloca i32, align 4
  store i32 %0, ptr %3, align 4
  store ptr %1, ptr %4, align 8
  %10 = load i32, ptr %3, align 4
  %11 = icmp sgt i32 %10, 0
  br i1 %11, label %12, label %68

12:                                               ; preds = %2
  store i64 0, ptr %5, align 8
  store i32 0, ptr %6, align 4
  store i32 0, ptr %7, align 4
  br label %13

13:                                               ; preds = %64, %12
  %14 = call i32 @sem_getvalue(ptr noundef @GC_suspend_ack_sem, ptr noundef %8) #18
  %15 = load i32, ptr %8, align 4
  %16 = load i32, ptr %3, align 4
  %17 = icmp eq i32 %15, %16
  br i1 %17, label %18, label %19

18:                                               ; preds = %13
  br label %67

19:                                               ; preds = %13
  %20 = load i64, ptr %5, align 8
  %21 = icmp ugt i64 %20, 100000
  br i1 %21, label %22, label %64

22:                                               ; preds = %19
  %23 = load ptr, ptr %4, align 8
  %24 = call i32 %23()
  store i32 %24, ptr %9, align 4
  %25 = load i32, ptr %9, align 4
  %26 = load i32, ptr %7, align 4
  %27 = icmp ne i32 %25, %26
  br i1 %27, label %28, label %29

28:                                               ; preds = %22
  store i32 0, ptr %6, align 4
  br label %39

29:                                               ; preds = %22
  %30 = load i32, ptr %6, align 4
  %31 = add nsw i32 %30, 1
  store i32 %31, ptr %6, align 4
  %32 = icmp sge i32 %31, 150
  br i1 %32, label %33, label %38

33:                                               ; preds = %29
  br label %34

34:                                               ; preds = %33
  %35 = load i64, ptr @GC_gc_no, align 8
  call void (ptr, ...) @GC_log_printf(ptr noundef @.str.296, i64 noundef %35)
  %36 = load ptr, ptr @GC_on_abort, align 8
  call void %36(ptr noundef @.str.297)
  call void @abort() #20
  unreachable

37:                                               ; No predecessors!
  br label %38

38:                                               ; preds = %37, %29
  br label %39

39:                                               ; preds = %38, %28
  %40 = load i32, ptr @GC_print_stats, align 4
  %41 = icmp ne i32 %40, 0
  %42 = xor i1 %41, true
  %43 = zext i1 %42 to i32
  %44 = sext i32 %43 to i64
  %45 = icmp ne i64 %44, 0
  br i1 %45, label %46, label %47

46:                                               ; preds = %39
  br label %50

47:                                               ; preds = %39
  %48 = load i32, ptr %9, align 4
  %49 = load i32, ptr %6, align 4
  call void (ptr, ...) @GC_log_printf(ptr noundef @.str.298, i32 noundef %48, i32 noundef %49)
  br label %50

50:                                               ; preds = %47, %46
  %51 = call i32 @sem_getvalue(ptr noundef @GC_suspend_ack_sem, ptr noundef %8) #18
  %52 = load i32, ptr %9, align 4
  %53 = load i32, ptr %3, align 4
  %54 = load i32, ptr %8, align 4
  %55 = sub nsw i32 %53, %54
  %56 = icmp slt i32 %52, %55
  br i1 %56, label %57, label %62

57:                                               ; preds = %50
  %58 = load ptr, ptr @GC_current_warn_proc, align 8
  call void %58(ptr noundef @.str.299, i64 noundef 0)
  %59 = load i32, ptr %8, align 4
  %60 = load i32, ptr %9, align 4
  %61 = add nsw i32 %59, %60
  store i32 %61, ptr %3, align 4
  br label %62

62:                                               ; preds = %57, %50
  %63 = load i32, ptr %9, align 4
  store i32 %63, ptr %7, align 4
  store i64 0, ptr %5, align 8
  br label %64

64:                                               ; preds = %62, %19
  call void @GC_usleep(i32 noundef 3000)
  %65 = load i64, ptr %5, align 8
  %66 = add i64 %65, 3000
  store i64 %66, ptr %5, align 8
  br label %13

67:                                               ; preds = %18
  br label %68

68:                                               ; preds = %67, %2
  %69 = load i32, ptr %3, align 4
  ret i32 %69
}

; Function Attrs: nounwind uwtable
define internal void @resend_lost_signals_retry(i32 noundef %0, ptr noundef %1) #0 {
  %3 = alloca i32, align 4
  %4 = alloca ptr, align 8
  %5 = alloca %struct.timespec, align 8
  %6 = alloca i32, align 4
  store i32 %0, ptr %3, align 4
  store ptr %1, ptr %4, align 8
  %7 = load i32, ptr %3, align 4
  %8 = icmp sgt i32 %7, 0
  br i1 %8, label %9, label %44

9:                                                ; preds = %2
  %10 = call i32 @clock_gettime(i32 noundef 0, ptr noundef %5) #18
  %11 = icmp eq i32 %10, 0
  br i1 %11, label %12, label %44

12:                                               ; preds = %9
  %13 = getelementptr inbounds %struct.timespec, ptr %5, i32 0, i32 1
  %14 = load i64, ptr %13, align 8
  %15 = add nsw i64 %14, 10000000
  store i64 %15, ptr %13, align 8
  %16 = getelementptr inbounds %struct.timespec, ptr %5, i32 0, i32 1
  %17 = load i64, ptr %16, align 8
  %18 = icmp sge i64 %17, 1000000000
  br i1 %18, label %19, label %26

19:                                               ; preds = %12
  %20 = getelementptr inbounds %struct.timespec, ptr %5, i32 0, i32 1
  %21 = load i64, ptr %20, align 8
  %22 = sub nsw i64 %21, 1000000000
  store i64 %22, ptr %20, align 8
  %23 = getelementptr inbounds %struct.timespec, ptr %5, i32 0, i32 0
  %24 = load i64, ptr %23, align 8
  %25 = add nsw i64 %24, 1
  store i64 %25, ptr %23, align 8
  br label %27

26:                                               ; preds = %12
  br label %27

27:                                               ; preds = %26, %19
  store i32 0, ptr %6, align 4
  br label %28

28:                                               ; preds = %37, %27
  %29 = load i32, ptr %6, align 4
  %30 = load i32, ptr %3, align 4
  %31 = icmp slt i32 %29, %30
  br i1 %31, label %32, label %40

32:                                               ; preds = %28
  %33 = call i32 @sem_timedwait(ptr noundef @GC_suspend_ack_sem, ptr noundef %5)
  %34 = icmp ne i32 0, %33
  br i1 %34, label %35, label %36

35:                                               ; preds = %32
  br label %40

36:                                               ; preds = %32
  br label %37

37:                                               ; preds = %36
  %38 = load i32, ptr %6, align 4
  %39 = add nsw i32 %38, 1
  store i32 %39, ptr %6, align 4
  br label %28, !llvm.loop !249

40:                                               ; preds = %35, %28
  %41 = load i32, ptr %6, align 4
  %42 = load i32, ptr %3, align 4
  %43 = sub nsw i32 %42, %41
  store i32 %43, ptr %3, align 4
  br label %44

44:                                               ; preds = %40, %9, %2
  %45 = load i32, ptr %3, align 4
  %46 = load ptr, ptr %4, align 8
  %47 = call i32 @resend_lost_signals(i32 noundef %45, ptr noundef %46)
  store i32 %47, ptr %3, align 4
  %48 = load i32, ptr %3, align 4
  call void @suspend_restart_barrier(i32 noundef %48)
  ret void
}