; Function Attrs: nounwind uwtable
define internal fastcc void @resend_lost_signals_retry(i32 noundef %0, ptr noundef readonly captures(none) %1) unnamed_addr #1 {
  %3 = alloca i32, align 4
  %4 = alloca %struct.timespec, align 8
  %5 = icmp sgt i32 %0, 0
  br i1 %5, label %6, label %.thread15

.thread15:                                        ; preds = %2
  call void @llvm.lifetime.start.p0(i64 4, ptr nonnull %3)
  br label %resend_lost_signals.exit.thread

6:                                                ; preds = %2
  %7 = call i32 @clock_gettime(i32 noundef 0, ptr noundef nonnull %4) #41
  %8 = icmp eq i32 %7, 0
  br i1 %8, label %9, label %.thread

.thread:                                          ; preds = %6
  call void @llvm.lifetime.start.p0(i64 4, ptr nonnull %3)
  br label %.preheader.i

9:                                                ; preds = %6
  %10 = getelementptr inbounds nuw i8, ptr %4, i64 8
  %11 = load i64, ptr %10, align 8
  %12 = add nsw i64 %11, 10000000
  store i64 %12, ptr %10, align 8
  %13 = icmp sgt i64 %11, 989999999
  br i1 %13, label %14, label %.lr.ph.preheader

14:                                               ; preds = %9
  %15 = add nsw i64 %11, -990000000
  store i64 %15, ptr %10, align 8
  %16 = load i64, ptr %4, align 8
  %17 = add nsw i64 %16, 1
  store i64 %17, ptr %4, align 8
  br label %.lr.ph.preheader

.lr.ph.preheader:                                 ; preds = %14, %9
  br label %.lr.ph

.lr.ph:                                           ; preds = %.lr.ph.preheader, %19
  %.018 = phi i32 [ %20, %19 ], [ 0, %.lr.ph.preheader ]
  %18 = call i32 @sem_timedwait(ptr noundef nonnull @GC_suspend_ack_sem, ptr noundef nonnull %4) #41
  %.not = icmp eq i32 %18, 0
  br i1 %.not, label %19, label %._crit_edge

19:                                               ; preds = %.lr.ph
  %20 = add nuw nsw i32 %.018, 1
  %exitcond.not = icmp eq i32 %20, %0
  br i1 %exitcond.not, label %._crit_edge, label %.lr.ph, !llvm.loop !257

._crit_edge:                                      ; preds = %.lr.ph, %19
  %.0.lcssa.ph = phi i32 [ %.018, %.lr.ph ], [ %0, %19 ]
  %21 = sub nsw i32 %0, %.0.lcssa.ph
  call void @llvm.lifetime.start.p0(i64 4, ptr nonnull %3)
  %22 = icmp sgt i32 %21, 0
  br i1 %22, label %.preheader.i, label %resend_lost_signals.exit.thread

.preheader.i:                                     ; preds = %.thread, %._crit_edge
  %.0814 = phi i32 [ %0, %.thread ], [ %21, %._crit_edge ]
  %23 = call i32 @sem_getvalue(ptr noundef nonnull @GC_suspend_ack_sem, ptr noundef nonnull %3) #41
  %24 = load i32, ptr %3, align 4
  %25 = icmp eq i32 %24, %.0814
  br i1 %25, label %resend_lost_signals.exit.thread21, label %.lr.ph.i

resend_lost_signals.exit.thread21:                ; preds = %.preheader.i
  call void @llvm.lifetime.end.p0(i64 4, ptr nonnull %3)
  br label %.preheader.i11.preheader

.lr.ph.i:                                         ; preds = %.preheader.i, %47
  %.130.i = phi i32 [ %.2.i, %47 ], [ %.0814, %.preheader.i ]
  %.01429.i = phi i32 [ %.115.i, %47 ], [ 0, %.preheader.i ]
  %.01628.i = phi i32 [ %.117.i, %47 ], [ 0, %.preheader.i ]
  %.01927.i = phi i64 [ %49, %47 ], [ 0, %.preheader.i ]
  %26 = icmp ugt i64 %.01927.i, 100000
  br i1 %26, label %27, label %47

27:                                               ; preds = %.lr.ph.i
  %28 = call i32 %1() #41, !callees !258
  %.not.i = icmp eq i32 %28, %.01429.i
  br i1 %.not.i, label %29, label %35

29:                                               ; preds = %27
  %30 = add nsw i32 %.01628.i, 1
  %31 = icmp sgt i32 %.01628.i, 148
  br i1 %31, label %32, label %35

32:                                               ; preds = %29
  %33 = load i64, ptr @GC_gc_no, align 8
  call void (ptr, ...) @GC_log_printf(ptr noundef nonnull @.str.296, i64 noundef %33)
  %34 = load ptr, ptr @GC_on_abort, align 8
  call void %34(ptr noundef nonnull @.str.297) #41
  call void @abort() #47
  unreachable

35:                                               ; preds = %29, %27
  %.218.i = phi i32 [ %30, %29 ], [ 0, %27 ]
  %36 = load i32, ptr @GC_print_stats, align 4
  %.not25.i = icmp eq i32 %36, 0
  br i1 %.not25.i, label %38, label %37

37:                                               ; preds = %35
  call void (ptr, ...) @GC_log_printf(ptr noundef nonnull @.str.298, i32 noundef %28, i32 noundef %.218.i)
  br label %38

38:                                               ; preds = %37, %35
  %39 = call i32 @sem_getvalue(ptr noundef nonnull @GC_suspend_ack_sem, ptr noundef nonnull %3) #41
  %40 = load i32, ptr %3, align 4
  %41 = sub nsw i32 %.130.i, %40
  %42 = icmp slt i32 %28, %41
  br i1 %42, label %43, label %47

43:                                               ; preds = %38
  %44 = load ptr, ptr @GC_current_warn_proc, align 8
  call void %44(ptr noundef nonnull @.str.299, i64 noundef 0) #41
  %45 = load i32, ptr %3, align 4
  %46 = add nsw i32 %45, %28
  br label %47

47:                                               ; preds = %43, %38, %.lr.ph.i
  %.120.i = phi i64 [ %.01927.i, %.lr.ph.i ], [ 0, %43 ], [ 0, %38 ]
  %.117.i = phi i32 [ %.01628.i, %.lr.ph.i ], [ %.218.i, %43 ], [ %.218.i, %38 ]
  %.115.i = phi i32 [ %.01429.i, %.lr.ph.i ], [ %28, %43 ], [ %28, %38 ]
  %.2.i = phi i32 [ %.130.i, %.lr.ph.i ], [ %46, %43 ], [ %.130.i, %38 ]
  %48 = call i32 @usleep(i32 noundef 3000) #41
  %49 = add nuw nsw i64 %.120.i, 3000
  %50 = call i32 @sem_getvalue(ptr noundef nonnull @GC_suspend_ack_sem, ptr noundef nonnull %3) #41
  %51 = load i32, ptr %3, align 4
  %52 = icmp eq i32 %51, %.2.i
  br i1 %52, label %resend_lost_signals.exit, label %.lr.ph.i

resend_lost_signals.exit.thread:                  ; preds = %._crit_edge, %.thread15
  call void @llvm.lifetime.end.p0(i64 4, ptr nonnull %3)
  br label %suspend_restart_barrier.exit

resend_lost_signals.exit:                         ; preds = %47
  call void @llvm.lifetime.end.p0(i64 4, ptr nonnull %3)
  %53 = icmp sgt i32 %.2.i, 0
  br i1 %53, label %.preheader.i11.preheader, label %suspend_restart_barrier.exit

.preheader.i11.preheader:                         ; preds = %resend_lost_signals.exit.thread21, %resend_lost_signals.exit
  %.0.i23 = phi i32 [ %.0814, %resend_lost_signals.exit.thread21 ], [ %.2.i, %resend_lost_signals.exit ]
  br label %.preheader.i11

.preheader.i11:                                   ; preds = %.preheader.i11.preheader, %61
  %.04.i = phi i32 [ %62, %61 ], [ 0, %.preheader.i11.preheader ]
  br label %54

54:                                               ; preds = %56, %.preheader.i11
  %55 = call i32 @sem_wait(ptr noundef nonnull @GC_suspend_ack_sem) #41
  %.not.i12 = icmp eq i32 %55, 0
  br i1 %.not.i12, label %61, label %56

56:                                               ; preds = %54
  %57 = tail call ptr @__errno_location() #48
  %58 = load i32, ptr %57, align 4
  %.not3.i = icmp eq i32 %58, 4
  br i1 %.not3.i, label %54, label %59, !llvm.loop !30

59:                                               ; preds = %56
  %60 = load ptr, ptr @GC_on_abort, align 8
  call void %60(ptr noundef nonnull @.str.119) #41
  call void @abort() #47
  unreachable

61:                                               ; preds = %54
  %62 = add nuw nsw i32 %.04.i, 1
  %exitcond.not.i = icmp eq i32 %62, %.0.i23
  br i1 %exitcond.not.i, label %suspend_restart_barrier.exit, label %.preheader.i11, !llvm.loop !31

suspend_restart_barrier.exit:                     ; preds = %61, %resend_lost_signals.exit.thread, %resend_lost_signals.exit
  ret void
}